target datalayout = "e-m:e-p270:32:32-p271:32:32-p272:64:64-i64:64-i128:128-f80:128-n8:16:32:64-S128"
target triple = "x86_64-pc-linux-gnu"

%"struct.pkpy::Str" = type { i32, i8, ptr, [16 x i8] }

@.str.4 = private unnamed_addr constant [5 x i8] c" \09\0A\0D\00", align 1
@_ZN4pkpy3StrC1Eib = unnamed_addr alias void (ptr, i32, i1), ptr @_ZN4pkpy3StrC2Eib
@_ZN4pkpy3StrC1EPKc = unnamed_addr alias void (ptr, ptr), ptr @_ZN4pkpy3StrC2EPKc
@_ZN4pkpy3StrD1Ev = unnamed_addr alias void (ptr), ptr @_ZN4pkpy3StrD2Ev

; Function Attrs: mustprogress uwtable
define void @_ZNK4pkpy3Str6substrEii(ptr dead_on_unwind noalias writable sret(%"struct.pkpy::Str") align 8 %0, ptr noundef nonnull align 8 dereferenceable(32) %1, i32 noundef %2, i32 noundef %3) #4 align 2 {
  %5 = alloca ptr, align 8
  %6 = alloca ptr, align 8
  %7 = alloca i32, align 4
  %8 = alloca i32, align 4
  %9 = alloca i1, align 1
  store ptr %0, ptr %5, align 8
  store ptr %1, ptr %6, align 8
  store i32 %2, ptr %7, align 4
  store i32 %3, ptr %8, align 4
  %10 = load ptr, ptr %6, align 8
  store i1 false, ptr %9, align 1
  %11 = load i32, ptr %8, align 4
  %12 = getelementptr inbounds %"struct.pkpy::Str", ptr %10, i32 0, i32 1
  %13 = load i8, ptr %12, align 4
  %14 = trunc i8 %13 to i1
  call void @_ZN4pkpy3StrC1Eib(ptr noundef nonnull align 8 dereferenceable(32) %0, i32 noundef %11, i1 noundef zeroext %14)
  %15 = getelementptr inbounds %"struct.pkpy::Str", ptr %0, i32 0, i32 2
  %16 = load ptr, ptr %15, align 8
  %17 = getelementptr inbounds %"struct.pkpy::Str", ptr %10, i32 0, i32 2
  %18 = load ptr, ptr %17, align 8
  %19 = load i32, ptr %7, align 4
  %20 = sext i32 %19 to i64
  %21 = getelementptr inbounds i8, ptr %18, i64 %20
  %22 = load i32, ptr %8, align 4
  %23 = sext i32 %22 to i64
  call void @llvm.memcpy.p0.p0.i64(ptr align 1 %16, ptr align 1 %21, i64 %23, i1 false)
  %24 = getelementptr inbounds %"struct.pkpy::Str", ptr %0, i32 0, i32 2
  %25 = load ptr, ptr %24, align 8
  %26 = load i32, ptr %8, align 4
  %27 = sext i32 %26 to i64
  %28 = getelementptr inbounds i8, ptr %25, i64 %27
  store i8 0, ptr %28, align 1
  store i1 true, ptr %9, align 1
  %29 = load i1, ptr %9, align 1
  br i1 %29, label %31, label %30

30:                                               ; preds = %4
  call void @_ZN4pkpy3StrD1Ev(ptr noundef nonnull align 8 dereferenceable(32) %0) #3
  br label %31

31:                                               ; preds = %30, %4
  ret void
}

; Function Attrs: mustprogress uwtable
define void @_ZNK4pkpy3Str5stripEbb(ptr dead_on_unwind noalias writable sret(%"struct.pkpy::Str") align 8 %0, ptr noundef nonnull align 8 dereferenceable(32) %1, i1 noundef zeroext %2, i1 noundef zeroext %3) #4 align 2 personality ptr @__gxx_personality_v0 {
  %5 = alloca ptr, align 8
  %6 = alloca ptr, align 8
  %7 = alloca i8, align 1
  %8 = alloca i8, align 1
  %9 = alloca i32, align 4
  %10 = alloca i32, align 4
  %11 = alloca %"struct.pkpy::Str", align 8
  %12 = alloca ptr, align 8
  %13 = alloca i32, align 4
  store ptr %0, ptr %5, align 8
  store ptr %1, ptr %6, align 8
  %14 = zext i1 %2 to i8
  store i8 %14, ptr %7, align 1
  %15 = zext i1 %3 to i8
  store i8 %15, ptr %8, align 1
  %16 = load ptr, ptr %6, align 8
  %17 = getelementptr inbounds %"struct.pkpy::Str", ptr %16, i32 0, i32 1
  %18 = load i8, ptr %17, align 4
  %19 = trunc i8 %18 to i1
  br i1 %19, label %20, label %135

20:                                               ; preds = %4
  store i32 0, ptr %9, align 4
  %21 = getelementptr inbounds %"struct.pkpy::Str", ptr %16, i32 0, i32 0
  %22 = load i32, ptr %21, align 8
  store i32 %22, ptr %10, align 4
  %23 = load i8, ptr %7, align 1
  %24 = trunc i8 %23 to i1
  br i1 %24, label %25, label %74

25:                                               ; preds = %20
  br label %26

26:                                               ; preds = %70, %25
  %27 = load i32, ptr %9, align 4
  %28 = load i32, ptr %10, align 4
  %29 = icmp slt i32 %27, %28
  br i1 %29, label %30, label %68

30:                                               ; preds = %26
  %31 = getelementptr inbounds %"struct.pkpy::Str", ptr %16, i32 0, i32 2
  %32 = load ptr, ptr %31, align 8
  %33 = load i32, ptr %9, align 4
  %34 = sext i32 %33 to i64
  %35 = getelementptr inbounds i8, ptr %32, i64 %34
  %36 = load i8, ptr %35, align 1
  %37 = sext i8 %36 to i32
  %38 = icmp eq i32 %37, 32
  br i1 %38, label %66, label %39

39:                                               ; preds = %30
  %40 = getelementptr inbounds %"struct.pkpy::Str", ptr %16, i32 0, i32 2
  %41 = load ptr, ptr %40, align 8
  %42 = load i32, ptr %9, align 4
  %43 = sext i32 %42 to i64
  %44 = getelementptr inbounds i8, ptr %41, i64 %43
  %45 = load i8, ptr %44, align 1
  %46 = sext i8 %45 to i32
  %47 = icmp eq i32 %46, 9
  br i1 %47, label %66, label %48

48:                                               ; preds = %39
  %49 = getelementptr inbounds %"struct.pkpy::Str", ptr %16, i32 0, i32 2
  %50 = load ptr, ptr %49, align 8
  %51 = load i32, ptr %9, align 4
  %52 = sext i32 %51 to i64
  %53 = getelementptr inbounds i8, ptr %50, i64 %52
  %54 = load i8, ptr %53, align 1
  %55 = sext i8 %54 to i32
  %56 = icmp eq i32 %55, 10
  br i1 %56, label %66, label %57

57:                                               ; preds = %48
  %58 = getelementptr inbounds %"struct.pkpy::Str", ptr %16, i32 0, i32 2
  %59 = load ptr, ptr %58, align 8
  %60 = load i32, ptr %9, align 4
  %61 = sext i32 %60 to i64
  %62 = getelementptr inbounds i8, ptr %59, i64 %61
  %63 = load i8, ptr %62, align 1
  %64 = sext i8 %63 to i32
  %65 = icmp eq i32 %64, 13
  br label %66

66:                                               ; preds = %57, %48, %39, %30
  %67 = phi i1 [ true, %48 ], [ true, %39 ], [ true, %30 ], [ %65, %57 ]
  br label %68

68:                                               ; preds = %66, %26
  %69 = phi i1 [ false, %26 ], [ %67, %66 ]
  br i1 %69, label %70, label %73

70:                                               ; preds = %68
  %71 = load i32, ptr %9, align 4
  %72 = add nsw i32 %71, 1
  store i32 %72, ptr %9, align 4
  br label %26, !llvm.loop !15

73:                                               ; preds = %68
  br label %74

74:                                               ; preds = %73, %20
  %75 = load i8, ptr %8, align 1
  %76 = trunc i8 %75 to i1
  br i1 %76, label %77, label %130

77:                                               ; preds = %74
  br label %78

78:                                               ; preds = %126, %77
  %79 = load i32, ptr %9, align 4
  %80 = load i32, ptr %10, align 4
  %81 = icmp slt i32 %79, %80
  br i1 %81, label %82, label %124

82:                                               ; preds = %78
  %83 = getelementptr inbounds %"struct.pkpy::Str", ptr %16, i32 0, i32 2
  %84 = load ptr, ptr %83, align 8
  %85 = load i32, ptr %10, align 4
  %86 = sub nsw i32 %85, 1
  %87 = sext i32 %86 to i64
  %88 = getelementptr inbounds i8, ptr %84, i64 %87
  %89 = load i8, ptr %88, align 1
  %90 = sext i8 %89 to i32
  %91 = icmp eq i32 %90, 32
  br i1 %91, label %122, label %92

92:                                               ; preds = %82
  %93 = getelementptr inbounds %"struct.pkpy::Str", ptr %16, i32 0, i32 2
  %94 = load ptr, ptr %93, align 8
  %95 = load i32, ptr %10, align 4
  %96 = sub nsw i32 %95, 1
  %97 = sext i32 %96 to i64
  %98 = getelementptr inbounds i8, ptr %94, i64 %97
  %99 = load i8, ptr %98, align 1
  %100 = sext i8 %99 to i32
  %101 = icmp eq i32 %100, 9
  br i1 %101, label %122, label %102

102:                                              ; preds = %92
  %103 = getelementptr inbounds %"struct.pkpy::Str", ptr %16, i32 0, i32 2
  %104 = load ptr, ptr %103, align 8
  %105 = load i32, ptr %10, align 4
  %106 = sub nsw i32 %105, 1
  %107 = sext i32 %106 to i64
  %108 = getelementptr inbounds i8, ptr %104, i64 %107
  %109 = load i8, ptr %108, align 1
  %110 = sext i8 %109 to i32
  %111 = icmp eq i32 %110, 10
  br i1 %111, label %122, label %112

112:                                              ; preds = %102
  %113 = getelementptr inbounds %"struct.pkpy::Str", ptr %16, i32 0, i32 2
  %114 = load ptr, ptr %113, align 8
  %115 = load i32, ptr %10, align 4
  %116 = sub nsw i32 %115, 1
  %117 = sext i32 %116 to i64
  %118 = getelementptr inbounds i8, ptr %114, i64 %117
  %119 = load i8, ptr %118, align 1
  %120 = sext i8 %119 to i32
  %121 = icmp eq i32 %120, 13
  br label %122

122:                                              ; preds = %112, %102, %92, %82
  %123 = phi i1 [ true, %102 ], [ true, %92 ], [ true, %82 ], [ %121, %112 ]
  br label %124

124:                                              ; preds = %122, %78
  %125 = phi i1 [ false, %78 ], [ %123, %122 ]
  br i1 %125, label %126, label %129

126:                                              ; preds = %124
  %127 = load i32, ptr %10, align 4
  %128 = add nsw i32 %127, -1
  store i32 %128, ptr %10, align 4
  br label %78, !llvm.loop !16

129:                                              ; preds = %124
  br label %130

130:                                              ; preds = %129, %74
  %131 = load i32, ptr %9, align 4
  %132 = load i32, ptr %10, align 4
  %133 = load i32, ptr %9, align 4
  %134 = sub nsw i32 %132, %133
  call void @_ZNK4pkpy3Str6substrEii(ptr dead_on_unwind writable sret(%"struct.pkpy::Str") align 8 %0, ptr noundef nonnull align 8 dereferenceable(32) %16, i32 noundef %131, i32 noundef %134)
  br label %145

135:                                              ; preds = %4
  %136 = load i8, ptr %7, align 1
  %137 = trunc i8 %136 to i1
  %138 = load i8, ptr %8, align 1
  %139 = trunc i8 %138 to i1
  call void @_ZN4pkpy3StrC1EPKc(ptr noundef nonnull align 8 dereferenceable(32) %11, ptr noundef @.str.4)
  invoke void @_ZNK4pkpy3Str5stripEbbRKS0_(ptr dead_on_unwind writable sret(%"struct.pkpy::Str") align 8 %0, ptr noundef nonnull align 8 dereferenceable(32) %16, i1 noundef zeroext %137, i1 noundef zeroext %139, ptr noundef nonnull align 8 dereferenceable(32) %11)
          to label %140 unwind label %141

140:                                              ; preds = %135
  call void @_ZN4pkpy3StrD1Ev(ptr noundef nonnull align 8 dereferenceable(32) %11) #3
  br label %145

141:                                              ; preds = %135
  %142 = landingpad { ptr, i32 }
          cleanup
  %143 = extractvalue { ptr, i32 } %142, 0
  store ptr %143, ptr %12, align 8
  %144 = extractvalue { ptr, i32 } %142, 1
  store i32 %144, ptr %13, align 4
  call void @_ZN4pkpy3StrD1Ev(ptr noundef nonnull align 8 dereferenceable(32) %11) #3
  br label %146

145:                                              ; preds = %140, %130
  ret void

146:                                              ; preds = %141
  %147 = load ptr, ptr %12, align 8
  %148 = load i32, ptr %13, align 4
  %149 = insertvalue { ptr, i32 } poison, ptr %147, 0
  %150 = insertvalue { ptr, i32 } %149, i32 %148, 1
  resume { ptr, i32 } %150
}