; Function Attrs: mustprogress uwtable
define void @_ZNK4pkpy3Str5stripEbb(ptr dead_on_unwind noalias writable sret(%"struct.pkpy::Str") align 8 %0, ptr nocapture noundef nonnull readonly align 8 dereferenceable(32) %1, i1 noundef zeroext %2, i1 noundef zeroext %3) local_unnamed_addr #3 align 2 personality ptr @__gxx_personality_v0 {
  %5 = alloca %"struct.pkpy::Str", align 8
  %6 = getelementptr inbounds i8, ptr %1, i64 4
  %7 = load i8, ptr %6, align 4
  %8 = trunc i8 %7 to i1
  br i1 %8, label %9, label %37

9:                                                ; preds = %4
  %10 = load i32, ptr %1, align 8
  %11 = icmp sgt i32 %10, 0
  %or.cond = select i1 %2, i1 %11, i1 false
  br i1 %or.cond, label %.lr.ph, label %.critedge

.lr.ph:                                           ; preds = %9
  %12 = getelementptr inbounds i8, ptr %1, i64 8
  %13 = load ptr, ptr %12, align 8
  %wide.trip.count = zext nneg i32 %10 to i64
  br label %14

14:                                               ; preds = %.lr.ph, %.critedge2
  %indvars.iv = phi i64 [ 0, %.lr.ph ], [ %indvars.iv.next, %.critedge2 ]
  %15 = getelementptr inbounds i8, ptr %13, i64 %indvars.iv
  %16 = load i8, ptr %15, align 1
  switch i8 %16, label %.critedge.loopexit [
    i8 32, label %.critedge2
    i8 9, label %.critedge2
    i8 10, label %.critedge2
    i8 13, label %.critedge2
  ]

.critedge2:                                       ; preds = %14, %14, %14, %14
  %indvars.iv.next = add nuw nsw i64 %indvars.iv, 1
  %exitcond.not = icmp eq i64 %indvars.iv.next, %wide.trip.count
  br i1 %exitcond.not, label %.critedge4, label %14, !llvm.loop !56

.critedge.loopexit:                               ; preds = %14
  %17 = trunc nuw nsw i64 %indvars.iv to i32
  br label %.critedge

.critedge:                                        ; preds = %.critedge.loopexit, %9
  %.1 = phi i32 [ 0, %9 ], [ %17, %.critedge.loopexit ]
  %18 = icmp slt i32 %.1, %10
  %or.cond42 = select i1 %3, i1 %18, i1 false
  br i1 %or.cond42, label %.lr.ph38, label %.critedge4

.lr.ph38:                                         ; preds = %.critedge
  %19 = getelementptr inbounds i8, ptr %1, i64 8
  %20 = load ptr, ptr %19, align 8
  %invariant.gep = getelementptr i8, ptr %20, i64 -1
  %21 = sext i32 %10 to i64
  %22 = sext i32 %.1 to i64
  br label %23

23:                                               ; preds = %.lr.ph38, %.critedge6
  %indvars.iv44 = phi i64 [ %21, %.lr.ph38 ], [ %indvars.iv.next45, %.critedge6 ]
  %gep = getelementptr i8, ptr %invariant.gep, i64 %indvars.iv44
  %24 = load i8, ptr %gep, align 1
  switch i8 %24, label %.critedge4.loopexit.split.loop.exit [
    i8 32, label %.critedge6
    i8 9, label %.critedge6
    i8 10, label %.critedge6
    i8 13, label %.critedge6
  ]

.critedge6:                                       ; preds = %23, %23, %23, %23
  %indvars.iv.next45 = add nsw i64 %indvars.iv44, -1
  %25 = icmp sgt i64 %indvars.iv.next45, %22
  br i1 %25, label %23, label %.critedge4, !llvm.loop !57

.critedge4.loopexit.split.loop.exit:              ; preds = %23
  %26 = trunc nsw i64 %indvars.iv44 to i32
  br label %.critedge4

.critedge4:                                       ; preds = %.critedge2, %.critedge6, %.critedge4.loopexit.split.loop.exit, %.critedge
  %.149 = phi i32 [ %.1, %.critedge ], [ %.1, %.critedge4.loopexit.split.loop.exit ], [ %.1, %.critedge6 ], [ %10, %.critedge2 ]
  %.130 = phi i32 [ %10, %.critedge ], [ %26, %.critedge4.loopexit.split.loop.exit ], [ %.1, %.critedge6 ], [ %10, %.critedge2 ]
  %27 = sub nsw i32 %.130, %.149
  tail call void @llvm.experimental.noalias.scope.decl(metadata !58)
  tail call void @_ZN4pkpy3StrC1Eib(ptr noundef nonnull align 8 dereferenceable(32) %0, i32 noundef %27, i1 noundef zeroext true)
  %28 = getelementptr inbounds i8, ptr %0, i64 8
  %29 = load ptr, ptr %28, align 8, !alias.scope !58
  %30 = getelementptr inbounds i8, ptr %1, i64 8
  %31 = load ptr, ptr %30, align 8, !noalias !58
  %32 = zext nneg i32 %.149 to i64
  %33 = getelementptr inbounds i8, ptr %31, i64 %32
  %34 = sext i32 %27 to i64
  tail call void @llvm.memcpy.p0.p0.i64(ptr align 1 %29, ptr align 1 %33, i64 %34, i1 false)
  %35 = load ptr, ptr %28, align 8, !alias.scope !58
  %36 = getelementptr inbounds i8, ptr %35, i64 %34
  store i8 0, ptr %36, align 1
  br label %41

37:                                               ; preds = %4
  call void @_ZN4pkpy3StrC1EPKc(ptr noundef nonnull align 8 dereferenceable(32) %5, ptr noundef nonnull @.str.4)
  invoke void @_ZNK4pkpy3Str5stripEbbRKS0_(ptr dead_on_unwind writable sret(%"struct.pkpy::Str") align 8 %0, ptr noundef nonnull align 8 dereferenceable(32) %1, i1 noundef zeroext %2, i1 noundef zeroext %3, ptr noundef nonnull align 8 dereferenceable(32) %5)
          to label %38 unwind label %39

38:                                               ; preds = %37
  call void @_ZN4pkpy3StrD1Ev(ptr noundef nonnull align 8 dereferenceable(32) %5) #23
  br label %41

39:                                               ; preds = %37
  %40 = landingpad { ptr, i32 }
          cleanup
  call void @_ZN4pkpy3StrD1Ev(ptr noundef nonnull align 8 dereferenceable(32) %5) #23
  resume { ptr, i32 } %40

41:                                               ; preds = %38, %.critedge4
  ret void
}